target datalayout = "e-m:e-p270:32:32-p271:32:32-p272:64:64-i64:64-i128:128-f80:128-n8:16:32:64-S128"
target triple = "x86_64-pc-linux-gnu"

%class.QuickOpen = type <{ ptr, i8, [7 x i8], ptr, ptr, ptr, i64, %class.CryptData, i8, [7 x i8], i64, i64, i64, i64, i64, i64, %class.Array, i64, i64, i8, [7 x i8] }>
%class.CryptData = type { [4 x %"struct.CryptData::KDF3CacheItem"], i32, [4 x i8], [4 x %"struct.CryptData::KDF5CacheItem"], i32, i32, %class.Rijndael, [256 x i32], [256 x i8], [4 x i32], [3 x i8], [4 x i16], [4 x i8] }
%"struct.CryptData::KDF3CacheItem" = type { %class.SecPassword, [8 x i8], [16 x i8], [16 x i8], i8, [7 x i8] }
%class.SecPassword = type <{ %"class.std::vector", i8, [7 x i8] }>
%"class.std::vector" = type { %"struct.std::_Vector_base" }
%"struct.std::_Vector_base" = type { %"struct.std::_Vector_base<wchar_t, std::allocator<wchar_t>>::_Vector_impl" }
%"struct.std::_Vector_base<wchar_t, std::allocator<wchar_t>>::_Vector_impl" = type { %"struct.std::_Vector_base<wchar_t, std::allocator<wchar_t>>::_Vector_impl_data" }
%"struct.std::_Vector_base<wchar_t, std::allocator<wchar_t>>::_Vector_impl_data" = type { ptr, ptr, ptr }
%"struct.CryptData::KDF5CacheItem" = type { %class.SecPassword, [16 x i8], [32 x i8], i32, [32 x i8], [32 x i8], [4 x i8] }
%class.Rijndael = type { i8, i32, [16 x i8], [15 x [4 x [4 x i8]]] }
%class.Array = type { ptr, i64, i64, i64 }

; Function Attrs: mustprogress nounwind uwtable
define linkonce_odr noundef ptr @_ZN5ArrayIhEplEm(ptr noundef nonnull align 8 dereferenceable(32) %0, i64 noundef %1) #2 comdat align 2 {
  %3 = alloca ptr, align 8
  %4 = alloca i64, align 8
  store ptr %0, ptr %3, align 8
  store i64 %1, ptr %4, align 8
  %5 = load ptr, ptr %3, align 8
  %6 = getelementptr inbounds %class.Array, ptr %5, i32 0, i32 0
  %7 = load ptr, ptr %6, align 8
  %8 = load i64, ptr %4, align 8
  %9 = getelementptr inbounds i8, ptr %7, i64 %8
  ret ptr %9
}

; Function Attrs: mustprogress nounwind uwtable
define linkonce_odr noundef i64 @_ZN5ArrayIhE4SizeEv(ptr noundef nonnull align 8 dereferenceable(32) %0) #2 comdat align 2 {
  %2 = alloca ptr, align 8
  store ptr %0, ptr %2, align 8
  %3 = load ptr, ptr %2, align 8
  %4 = getelementptr inbounds %class.Array, ptr %3, i32 0, i32 1
  %5 = load i64, ptr %4, align 8
  ret i64 %5
}

; Function Attrs: mustprogress uwtable
define noundef zeroext i1 @_ZN9QuickOpen4ReadEPvmRm(ptr noundef nonnull align 8 dereferenceable(2673) %0, ptr noundef %1, i64 noundef %2, ptr noundef nonnull align 8 dereferenceable(8) %3) #0 align 2 {
  %5 = alloca i1, align 1
  %6 = alloca ptr, align 8
  %7 = alloca ptr, align 8
  %8 = alloca i64, align 8
  %9 = alloca ptr, align 8
  %10 = alloca i32, align 4
  store ptr %0, ptr %6, align 8
  store ptr %1, ptr %7, align 8
  store i64 %2, ptr %8, align 8
  store ptr %3, ptr %9, align 8
  %11 = load ptr, ptr %6, align 8
  %12 = getelementptr inbounds %class.QuickOpen, ptr %11, i32 0, i32 8
  %13 = load i8, ptr %12, align 8
  %14 = trunc i8 %13 to i1
  br i1 %14, label %16, label %15

15:                                               ; preds = %4
  store i1 false, ptr %5, align 1
  br label %108

16:                                               ; preds = %4
  br label %17

17:                                               ; preds = %29, %16
  %18 = getelementptr inbounds %class.QuickOpen, ptr %11, i32 0, i32 17
  %19 = load i64, ptr %18, align 8
  %20 = getelementptr inbounds %class.QuickOpen, ptr %11, i32 0, i32 16
  %21 = call noundef i64 @_ZN5ArrayIhE4SizeEv(ptr noundef nonnull align 8 dereferenceable(32) %20)
  %22 = add i64 %19, %21
  %23 = getelementptr inbounds %class.QuickOpen, ptr %11, i32 0, i32 18
  %24 = load i64, ptr %23, align 8
  %25 = icmp ule i64 %22, %24
  br i1 %25, label %26, label %30

26:                                               ; preds = %17
  %27 = call noundef zeroext i1 @_ZN9QuickOpen8ReadNextEv(ptr noundef nonnull align 8 dereferenceable(2673) %11)
  br i1 %27, label %29, label %28

28:                                               ; preds = %26
  br label %30

29:                                               ; preds = %26
  br label %17, !llvm.loop !6

30:                                               ; preds = %28, %17
  %31 = getelementptr inbounds %class.QuickOpen, ptr %11, i32 0, i32 8
  %32 = load i8, ptr %31, align 8
  %33 = trunc i8 %32 to i1
  br i1 %33, label %44, label %34

34:                                               ; preds = %30
  %35 = getelementptr inbounds %class.QuickOpen, ptr %11, i32 0, i32 19
  %36 = load i8, ptr %35, align 8
  %37 = trunc i8 %36 to i1
  br i1 %37, label %38, label %43

38:                                               ; preds = %34
  %39 = getelementptr inbounds %class.QuickOpen, ptr %11, i32 0, i32 0
  %40 = load ptr, ptr %39, align 8
  %41 = getelementptr inbounds %class.QuickOpen, ptr %11, i32 0, i32 18
  %42 = load i64, ptr %41, align 8
  call void @_ZN4File4SeekEli(ptr noundef nonnull align 8 dereferenceable(8256) %40, i64 noundef %42, i32 noundef 0)
  br label %43

43:                                               ; preds = %38, %34
  store i1 false, ptr %5, align 1
  br label %108

44:                                               ; preds = %30
  %45 = getelementptr inbounds %class.QuickOpen, ptr %11, i32 0, i32 18
  %46 = load i64, ptr %45, align 8
  %47 = getelementptr inbounds %class.QuickOpen, ptr %11, i32 0, i32 17
  %48 = load i64, ptr %47, align 8
  %49 = icmp uge i64 %46, %48
  br i1 %49, label %50, label %78

50:                                               ; preds = %44
  %51 = getelementptr inbounds %class.QuickOpen, ptr %11, i32 0, i32 18
  %52 = load i64, ptr %51, align 8
  %53 = load i64, ptr %8, align 8
  %54 = add i64 %52, %53
  %55 = getelementptr inbounds %class.QuickOpen, ptr %11, i32 0, i32 17
  %56 = load i64, ptr %55, align 8
  %57 = getelementptr inbounds %class.QuickOpen, ptr %11, i32 0, i32 16
  %58 = call noundef i64 @_ZN5ArrayIhE4SizeEv(ptr noundef nonnull align 8 dereferenceable(32) %57)
  %59 = add i64 %56, %58
  %60 = icmp ule i64 %54, %59
  br i1 %60, label %61, label %78

61:                                               ; preds = %50
  %62 = load ptr, ptr %7, align 8
  %63 = getelementptr inbounds %class.QuickOpen, ptr %11, i32 0, i32 16
  %64 = getelementptr inbounds %class.QuickOpen, ptr %11, i32 0, i32 18
  %65 = load i64, ptr %64, align 8
  %66 = getelementptr inbounds %class.QuickOpen, ptr %11, i32 0, i32 17
  %67 = load i64, ptr %66, align 8
  %68 = sub i64 %65, %67
  %69 = call noundef ptr @_ZN5ArrayIhEplEm(ptr noundef nonnull align 8 dereferenceable(32) %63, i64 noundef %68)
  %70 = load i64, ptr %8, align 8
  call void @llvm.memcpy.p0.p0.i64(ptr align 1 %62, ptr align 1 %69, i64 %70, i1 false)
  %71 = load i64, ptr %8, align 8
  %72 = load ptr, ptr %9, align 8
  store i64 %71, ptr %72, align 8
  %73 = load i64, ptr %8, align 8
  %74 = getelementptr inbounds %class.QuickOpen, ptr %11, i32 0, i32 18
  %75 = load i64, ptr %74, align 8
  %76 = add i64 %75, %73
  store i64 %76, ptr %74, align 8
  %77 = getelementptr inbounds %class.QuickOpen, ptr %11, i32 0, i32 19
  store i8 1, ptr %77, align 8
  br label %107

78:                                               ; preds = %50, %44
  %79 = getelementptr inbounds %class.QuickOpen, ptr %11, i32 0, i32 19
  %80 = load i8, ptr %79, align 8
  %81 = trunc i8 %80 to i1
  br i1 %81, label %82, label %88

82:                                               ; preds = %78
  %83 = getelementptr inbounds %class.QuickOpen, ptr %11, i32 0, i32 0
  %84 = load ptr, ptr %83, align 8
  %85 = getelementptr inbounds %class.QuickOpen, ptr %11, i32 0, i32 18
  %86 = load i64, ptr %85, align 8
  call void @_ZN4File4SeekEli(ptr noundef nonnull align 8 dereferenceable(8256) %84, i64 noundef %86, i32 noundef 0)
  %87 = getelementptr inbounds %class.QuickOpen, ptr %11, i32 0, i32 19
  store i8 0, ptr %87, align 8
  br label %88

88:                                               ; preds = %82, %78
  %89 = getelementptr inbounds %class.QuickOpen, ptr %11, i32 0, i32 0
  %90 = load ptr, ptr %89, align 8
  %91 = load ptr, ptr %7, align 8
  %92 = load i64, ptr %8, align 8
  %93 = call noundef i32 @_ZN4File4ReadEPvm(ptr noundef nonnull align 8 dereferenceable(8256) %90, ptr noundef %91, i64 noundef %92)
  store i32 %93, ptr %10, align 4
  %94 = load i32, ptr %10, align 4
  %95 = icmp slt i32 %94, 0
  br i1 %95, label %96, label %98

96:                                               ; preds = %88
  %97 = getelementptr inbounds %class.QuickOpen, ptr %11, i32 0, i32 8
  store i8 0, ptr %97, align 8
  store i1 false, ptr %5, align 1
  br label %108

98:                                               ; preds = %88
  %99 = load i32, ptr %10, align 4
  %100 = sext i32 %99 to i64
  %101 = load ptr, ptr %9, align 8
  store i64 %100, ptr %101, align 8
  %102 = load i32, ptr %10, align 4
  %103 = sext i32 %102 to i64
  %104 = getelementptr inbounds %class.QuickOpen, ptr %11, i32 0, i32 18
  %105 = load i64, ptr %104, align 8
  %106 = add i64 %105, %103
  store i64 %106, ptr %104, align 8
  br label %107

107:                                              ; preds = %98, %61
  store i1 true, ptr %5, align 1
  br label %108

108:                                              ; preds = %107, %96, %43, %15
  %109 = load i1, ptr %5, align 1
  ret i1 %109
}