; Function Attrs: mustprogress uwtable
define noundef zeroext i1 @_ZN9QuickOpen4ReadEPvmRm(ptr noundef nonnull align 8 dereferenceable(2673) %0, ptr noundef %1, i64 noundef %2, ptr nocapture noundef nonnull writeonly align 8 dereferenceable(8) %3) local_unnamed_addr #0 align 2 {
  %5 = getelementptr inbounds i8, ptr %0, i64 2568
  %6 = load i8, ptr %5, align 8
  %7 = trunc i8 %6 to i1
  br i1 %7, label %.preheader, label %58

.preheader:                                       ; preds = %4
  %8 = getelementptr inbounds i8, ptr %0, i64 2656
  %9 = getelementptr inbounds i8, ptr %0, i64 2632
  %10 = getelementptr inbounds i8, ptr %0, i64 2664
  br label %11

11:                                               ; preds = %.preheader, %16
  %12 = load i64, ptr %8, align 8
  %13 = load i64, ptr %9, align 8
  %14 = add i64 %13, %12
  %15 = load i64, ptr %10, align 8
  %.not = icmp ugt i64 %14, %15
  br i1 %.not, label %18, label %16

16:                                               ; preds = %11
  %17 = tail call noundef zeroext i1 @_ZN9QuickOpen8ReadNextEv(ptr noundef nonnull align 8 dereferenceable(2673) %0)
  br i1 %17, label %11, label %18, !llvm.loop !7

18:                                               ; preds = %16, %11
  %19 = getelementptr inbounds i8, ptr %0, i64 2624
  %20 = load i8, ptr %5, align 8
  %21 = trunc i8 %20 to i1
  br i1 %21, label %29, label %22

22:                                               ; preds = %18
  %23 = getelementptr inbounds i8, ptr %0, i64 2672
  %24 = load i8, ptr %23, align 8
  %25 = trunc i8 %24 to i1
  br i1 %25, label %26, label %58

26:                                               ; preds = %22
  %27 = load ptr, ptr %0, align 8
  %28 = load i64, ptr %10, align 8
  tail call void @_ZN4File4SeekEli(ptr noundef nonnull align 8 dereferenceable(8256) %27, i64 noundef %28, i32 noundef 0)
  br label %58

29:                                               ; preds = %18
  %30 = load i64, ptr %10, align 8
  %31 = load i64, ptr %8, align 8
  %.not16 = icmp ult i64 %30, %31
  br i1 %.not16, label %43, label %32

32:                                               ; preds = %29
  %33 = add i64 %30, %2
  %34 = load i64, ptr %9, align 8
  %35 = add i64 %34, %31
  %.not17 = icmp ugt i64 %33, %35
  br i1 %.not17, label %43, label %36

36:                                               ; preds = %32
  %37 = sub i64 %30, %31
  %38 = load ptr, ptr %19, align 8
  %39 = getelementptr inbounds i8, ptr %38, i64 %37
  tail call void @llvm.memcpy.p0.p0.i64(ptr align 1 %1, ptr align 1 %39, i64 %2, i1 false)
  store i64 %2, ptr %3, align 8
  %40 = load i64, ptr %10, align 8
  %41 = add i64 %40, %2
  store i64 %41, ptr %10, align 8
  %42 = getelementptr inbounds i8, ptr %0, i64 2672
  store i8 1, ptr %42, align 8
  br label %58

43:                                               ; preds = %32, %29
  %44 = getelementptr inbounds i8, ptr %0, i64 2672
  %45 = load i8, ptr %44, align 8
  %46 = trunc i8 %45 to i1
  br i1 %46, label %47, label %49

47:                                               ; preds = %43
  %48 = load ptr, ptr %0, align 8
  tail call void @_ZN4File4SeekEli(ptr noundef nonnull align 8 dereferenceable(8256) %48, i64 noundef %30, i32 noundef 0)
  store i8 0, ptr %44, align 8
  br label %49

49:                                               ; preds = %47, %43
  %50 = load ptr, ptr %0, align 8
  %51 = tail call noundef i32 @_ZN4File4ReadEPvm(ptr noundef nonnull align 8 dereferenceable(8256) %50, ptr noundef %1, i64 noundef %2)
  %52 = icmp slt i32 %51, 0
  br i1 %52, label %53, label %54

53:                                               ; preds = %49
  store i8 0, ptr %5, align 8
  br label %58

54:                                               ; preds = %49
  %55 = zext nneg i32 %51 to i64
  store i64 %55, ptr %3, align 8
  %56 = load i64, ptr %10, align 8
  %57 = add i64 %56, %55
  store i64 %57, ptr %10, align 8
  br label %58

58:                                               ; preds = %36, %54, %22, %26, %4, %53
  %.0 = phi i1 [ false, %53 ], [ false, %4 ], [ false, %26 ], [ false, %22 ], [ true, %54 ], [ true, %36 ]
  ret i1 %.0
}